; Function Attrs: mustprogress uwtable
define void @_ZN24SaveMeshAttributesDialog19on_okButton_clickedEv(ptr noundef nonnull align 8 dereferenceable(144) %0) local_unnamed_addr #9 align 2 {
  tail call void @_ZN24SaveMeshAttributesDialog10updateMaskEv(ptr noundef nonnull align 8 dereferenceable(144) %0)
  %2 = getelementptr inbounds i8, ptr %0, i64 128
  %3 = load ptr, ptr %2, align 8
  %4 = getelementptr inbounds i8, ptr %0, i64 80
  tail call void @_ZN22RichParameterListFrame26writeValuesOnParameterListER17RichParameterList(ptr noundef nonnull align 8 dereferenceable(200) %3, ptr noundef nonnull align 8 dereferenceable(24) %4)
  %5 = getelementptr inbounds i8, ptr %0, i64 48
  %6 = load ptr, ptr %5, align 8
  %7 = getelementptr inbounds i8, ptr %6, i64 248
  %8 = load ptr, ptr %7, align 8
  %9 = tail call noundef i32 @_ZNK8QSpinBox5valueEv(ptr noundef nonnull align 8 dereferenceable(48) %8)
  %10 = getelementptr inbounds i8, ptr %0, i64 76
  store i32 %9, ptr %10, align 4
  ret void
}